(lp0
(lp1
I883286
aI-871406
aa(lp2
I287046
aI-198807
aa(lp3
I988717
aI150250
aa(lp4
I610921
aI-204317
aa(lp5
I-974750
aI758394
aa(lp6
I731703
aI501318
aa(lp7
I897055
aI764483
aa(lp8
I153260
aI-562268
aa(lp9
I-158141
aI84960
aa(lp10
I434743
aI286869
aa.