(lp0
(lp1
I883286
aI-871406
aa(lp2
I287046
aI-198807
aa(lp3
I988717
aI150250
aa(lp4
I610921
aI-204317
aa(lp5
I731703
aI501318
aa(lp6
I897055
aI764483
aa(lp7
I153260
aI-562268
aa(lp8
I434743
aI286869
aa(lp9
I465133
aI79338
aa(lp10
I-409867
aI521465
aa(lp11
I758169
aI-594851
aa(lp12
I765417
aI-48538
aa(lp13
I-304690
aI-228022
aa(lp14
I366576
aI304750
aa.