(dp0
I32
(dp1
S'comment'
p2
S''
p3
sS'pts'
p4
(lp5
(lp6
I-737957
aI676709
aa(lp7
I-475428
aI471542
aa(lp8
I-932591
aI-297366
aa(lp9
I-715483
aI71953
aa(lp10
I192606
aI233990
aa(lp11
I923361
aI195227
aa(lp12
I742739
aI472267
aa(lp13
I-858997
aI861896
aa(lp14
I-225559
aI-722657
aa(lp15
I778832
aI-592834
aa(lp16
I73841
aI684913
aa(lp17
I-498503
aI-317750
aa(lp18
I65293
aI938474
aa(lp19
I-512839
aI-240526
aa(lp20
I553937
aI-372730
aa(lp21
I-400109
aI714496
aa(lp22
I-753472
aI640955
aa(lp23
I-15117
aI-203992
aa(lp24
I237453
aI523447
aa(lp25
I133615
aI880238
aa(lp26
I906055
aI587625
aa(lp27
I-561891
aI-5509
aa(lp28
I-587252
aI945168
aa(lp29
I857848
aI637542
aa(lp30
I-155114
aI655814
aa(lp31
I85935
aI758163
aa(lp32
I-743888
aI-94507
aa(lp33
I273249
aI-927839
aa(lp34
I-60709
aI245387
aa(lp35
I-909349
aI-59342
aa(lp36
I-448236
aI637789
aa(lp37
I385145
aI-542984
aasS'user_id'
p38
S'3'
p39
sS'val'
p40
I395
sS'date_discovered'
p41
cdatetime
datetime
p42
(S'\x07\xdf\x07\r\x14\x03\x1a\x07&\xfb'
p43
tp44
Rp45
ssI67
(dp46
S'comment'
p47
g3
sS'pts'
p48
(lp49
(lp50
I621991
aI91623
aa(lp51
I-196693
aI560378
aa(lp52
I-887650
aI-459072
aa(lp53
I-851443
aI590152
aa(lp54
I600934
aI61300
aa(lp55
I-822385
aI141996
aa(lp56
I-925190
aI-947779
aa(lp57
I787475
aI215580
aa(lp58
I273558
aI-871084
aa(lp59
I110592
aI-349455
aa(lp60
I-887713
aI-117342
aa(lp61
I-62635
aI-352245
aa(lp62
I27304
aI13949
aa(lp63
I261996
aI634063
aa(lp64
I387396
aI889171
aa(lp65
I916232
aI-648156
aa(lp66
I-841674
aI-226448
aa(lp67
I-605839
aI7128
aa(lp68
I909650
aI2883
aa(lp69
I755458
aI969637
aa(lp70
I-105492
aI620860
aa(lp71
I-384088
aI329351
aa(lp72
I360742
aI-300178
aa(lp73
I-393885
aI-533471
aa(lp74
I-81453
aI-116315
aa(lp75
I638915
aI-273977
aa(lp76
I-577007
aI548425
aa(lp77
I-142857
aI45274
aa(lp78
I-766121
aI-328652
aa(lp79
I-397018
aI-109296
aa(lp80
I-961808
aI443963
aa(lp81
I715511
aI-257642
aa(lp82
I-151704
aI68496
aa(lp83
I-522851
aI-544296
aa(lp84
I923535
aI347240
aa(lp85
I782358
aI-748507
aa(lp86
I-114061
aI570362
aa(lp87
I-636319
aI600698
aa(lp88
I-776198
aI-108677
aa(lp89
I632296
aI649221
aa(lp90
I847322
aI-859264
aa(lp91
I-361520
aI-734050
aa(lp92
I882138
aI-133897
aa(lp93
I150617
aI-730115
aa(lp94
I17434
aI-925556
aa(lp95
I234649
aI207855
aa(lp96
I-165456
aI-66450
aa(lp97
I788404
aI75689
aa(lp98
I166968
aI-11140
aa(lp99
I-694609
aI-401943
aa(lp100
I-74675
aI722094
aa(lp101
I65892
aI-403072
aa(lp102
I584139
aI-771839
aa(lp103
I974675
aI-185565
aa(lp104
I-757112
aI208377
aa(lp105
I-291931
aI470343
aa(lp106
I-451183
aI-520027
aa(lp107
I370560
aI-198604
aa(lp108
I485839
aI-786434
aa(lp109
I-814461
aI65261
aa(lp110
I-158195
aI270000
aa(lp111
I836234
aI253176
aa(lp112
I731214
aI-361485
aa(lp113
I961045
aI418211
aa(lp114
I755901
aI888530
aa(lp115
I916713
aI117684
aa(lp116
I265206
aI18261
aasS'user_id'
p117
S'3'
p118
sg40
I8144
sS'date_discovered'
p119
g42
(S'\x07\xdf\x07\r\x14\x03\x1a\x08sY'
p120
tp121
Rp122
ssI68
(dp123
S'comment'
p124
g3
sS'pts'
p125
(lp126
(lp127
I437086
aI738068
aa(lp128
I963252
aI-996713
aa(lp129
I-856043
aI-270526
aa(lp130
I484504
aI487822
aa(lp131
I-783012
aI86091
aa(lp132
I-812265
aI-657820
aa(lp133
I4507
aI146985
aa(lp134
I-581666
aI820331
aa(lp135
I-267030
aI-313320
aa(lp136
I-339771
aI-966389
aa(lp137
I165376
aI-862548
aa(lp138
I-300231
aI270871
aa(lp139
I264732
aI274083
aa(lp140
I-850304
aI326928
aa(lp141
I-557084
aI572608
aa(lp142
I883344
aI829503
aa(lp143
I442487
aI673613
aa(lp144
I-499384
aI744567
aa(lp145
I-444756
aI-856030
aa(lp146
I926133
aI836851
aa(lp147
I474113
aI-690774
aa(lp148
I-440138
aI693353
aa(lp149
I435370
aI751952
aa(lp150
I188136
aI-810080
aa(lp151
I277644
aI977190
aa(lp152
I-385826
aI564588
aa(lp153
I-218036
aI588343
aa(lp154
I206452
aI384558
aa(lp155
I-163773
aI-851376
aa(lp156
I843250
aI974212
aa(lp157
I-626330
aI144920
aa(lp158
I-402718
aI-913608
aa(lp159
I-741190
aI-674841
aa(lp160
I-435148
aI909411
aa(lp161
I613642
aI397229
aa(lp162
I629145
aI-300022
aa(lp163
I744952
aI-560543
aa(lp164
I299365
aI710452
aa(lp165
I-432309
aI967731
aa(lp166
I-439299
aI494356
aa(lp167
I356470
aI-397378
aa(lp168
I-964504
aI830865
aa(lp169
I-313408
aI381137
aa(lp170
I-246525
aI-480486
aa(lp171
I489250
aI731079
aa(lp172
I-897572
aI357347
aa(lp173
I-113670
aI-515509
aa(lp174
I-666363
aI-748029
aa(lp175
I-701394
aI-994490
aa(lp176
I721250
aI128836
aa(lp177
I107566
aI-19146
aa(lp178
I-998752
aI20452
aa(lp179
I-995170
aI159134
aa(lp180
I226213
aI-925347
aa(lp181
I-533516
aI-644175
aa(lp182
I-657794
aI-585265
aa(lp183
I159142
aI31484
aa(lp184
I882797
aI574277
aa(lp185
I52486
aI-462477
aa(lp186
I394420
aI-113149
aa(lp187
I841153
aI-222190
aa(lp188
I803795
aI-746597
aa(lp189
I-902283
aI-448981
aa(lp190
I874177
aI-428324
aa(lp191
I230348
aI277499
aa(lp192
I425179
aI646880
aa(lp193
I525199
aI-258639
aa(lp194
I-291989
aI-541718
aasS'user_id'
p195
S'1'
p196
sg40
I9590
sS'date_discovered'
p197
g42
(S'\x07\xdf\x07\r\x14\x03\x18\t\xe60'
p198
tp199
Rp200
ssI38
(dp201
S'comment'
p202
g3
sS'pts'
p203
(lp204
(lp205
I944441
aI669895
aa(lp206
I-908258
aI-632538
aa(lp207
I-98637
aI-18994
aa(lp208
I-64984
aI700486
aa(lp209
I956080
aI849753
aa(lp210
I696007
aI122423
aa(lp211
I-503459
aI-457130
aa(lp212
I769789
aI998992
aa(lp213
I-449837
aI869834
aa(lp214
I308082
aI799821
aa(lp215
I-641744
aI-370707
aa(lp216
I289010
aI917505
aa(lp217
I-194907
aI-189019
aa(lp218
I48471
aI301248
aa(lp219
I-773760
aI-682453
aa(lp220
I-706694
aI-882419
aa(lp221
I443646
aI713413
aa(lp222
I-778590
aI721489
aa(lp223
I-83387
aI-932372
aa(lp224
I818092
aI117804
aa(lp225
I-793332
aI991787
aa(lp226
I-687748
aI-153610
aa(lp227
I-128541
aI580542
aa(lp228
I946064
aI-979084
aa(lp229
I763902
aI840925
aa(lp230
I-322334
aI212673
aa(lp231
I-938791
aI104370
aa(lp232
I608021
aI-643974
aa(lp233
I-307496
aI411857
aa(lp234
I-327781
aI366722
aa(lp235
I800941
aI-319360
aa(lp236
I314720
aI-543402
aa(lp237
I-350093
aI562803
aa(lp238
I463516
aI107967
aa(lp239
I-454630
aI-801278
aa(lp240
I934069
aI727369
aa(lp241
I118591
aI-653659
aa(lp242
I-815123
aI806122
aasS'user_id'
p243
S'2'
p244
sg40
I1226
sS'date_discovered'
p245
g42
(S'\x07\xdf\x07\r\x14\x03\x1a\x07\x14\xb4'
p246
tp247
Rp248
ssI70
(dp249
S'comment'
p250
g3
sS'pts'
p251
(lp252
(lp253
I775538
aI345956
aa(lp254
I-220593
aI793183
aa(lp255
I-889984
aI411306
aa(lp256
I-380832
aI503271
aa(lp257
I298210
aI-33544
aa(lp258
I-204131
aI785654
aa(lp259
I-440379
aI177330
aa(lp260
I-940491
aI393597
aa(lp261
I184252
aI734897
aa(lp262
I-600877
aI27712
aa(lp263
I-645560
aI508394
aa(lp264
I713855
aI-521671
aa(lp265
I753088
aI-202735
aa(lp266
I-640946
aI339572
aa(lp267
I733754
aI271320
aa(lp268
I515679
aI-681475
aa(lp269
I-419559
aI-178998
aa(lp270
I191407
aI459536
aa(lp271
I216368
aI-339212
aa(lp272
I-389341
aI-451773
aa(lp273
I-320402
aI-539618
aa(lp274
I936548
aI990326
aa(lp275
I-813779
aI-648836
aa(lp276
I809583
aI-965599
aa(lp277
I-672879
aI148919
aa(lp278
I-853420
aI-944914
aa(lp279
I-732318
aI40420
aa(lp280
I-882933
aI314254
aa(lp281
I-176399
aI-184724
aa(lp282
I271712
aI361468
aa(lp283
I-372388
aI580668
aa(lp284
I-348851
aI-885368
aa(lp285
I-686154
aI-932621
aa(lp286
I-194211
aI-888279
aa(lp287
I-420751
aI162549
aa(lp288
I-871512
aI834262
aa(lp289
I523595
aI853596
aa(lp290
I-198668
aI-180433
aa(lp291
I-76182
aI-940103
aa(lp292
I764832
aI350410
aa(lp293
I250539
aI320552
aa(lp294
I157097
aI-742252
aa(lp295
I-73764
aI641912
aa(lp296
I763986
aI406402
aa(lp297
I912414
aI244941
aa(lp298
I920918
aI-373763
aa(lp299
I897472
aI422880
aa(lp300
I-357676
aI-62697
aa(lp301
I758480
aI660164
aa(lp302
I-291019
aI246288
aa(lp303
I318869
aI-522605
aa(lp304
I-916243
aI31358
aa(lp305
I950723
aI-150334
aa(lp306
I52016
aI-69996
aa(lp307
I-99533
aI-391389
aa(lp308
I629973
aI-399141
aa(lp309
I999901
aI-823400
aa(lp310
I-369636
aI319554
aa(lp311
I190057
aI-480295
aa(lp312
I106393
aI51835
aa(lp313
I-210288
aI-430104
aa(lp314
I-914652
aI431711
aa(lp315
I-152730
aI-467704
aa(lp316
I-200153
aI196323
aa(lp317
I950856
aI-987452
aa(lp318
I-447962
aI-432285
aa(lp319
I570861
aI405611
aa(lp320
I-136091
aI-912584
aa(lp321
I-605164
aI889850
aa(lp322
I186360
aI111089
aasS'user_id'
p323
S'2'
p324
sg40
I4560
sS'date_discovered'
p325
g42
(S'\x07\xdf\x07\r\x14\x03\x1a\x08(\x13'
p326
tp327
Rp328
ssI74
(dp329
S'comment'
p330
g3
sS'pts'
p331
(lp332
(lp333
I-211509
aI937369
aa(lp334
I215950
aI937428
aa(lp335
I-269055
aI642008
aa(lp336
I-778106
aI944248
aa(lp337
I-395817
aI-418022
aa(lp338
I156374
aI95243
aa(lp339
I898084
aI799537
aa(lp340
I-684965
aI239314
aa(lp341
I696099
aI-64331
aa(lp342
I-1395
aI-449910
aa(lp343
I750761
aI941268
aa(lp344
I-928439
aI453145
aa(lp345
I-216673
aI-690763
aa(lp346
I936926
aI-998868
aa(lp347
I-15965
aI-379820
aa(lp348
I403330
aI921500
aa(lp349
I-335218
aI562279
aa(lp350
I-189858
aI-210780
aa(lp351
I-502462
aI-55129
aa(lp352
I406988
aI815351
aa(lp353
I-766731
aI376533
aa(lp354
I790839
aI-261438
aa(lp355
I-358271
aI568159
aa(lp356
I868474
aI824412
aa(lp357
I-699040
aI544900
aa(lp358
I152274
aI228389
aa(lp359
I-882235
aI-957106
aa(lp360
I497488
aI957345
aa(lp361
I588259
aI-294572
aa(lp362
I-889593
aI641881
aa(lp363
I129594
aI278175
aa(lp364
I-192100
aI-291897
aa(lp365
I286819
aI-916103
aa(lp366
I-536916
aI-932488
aa(lp367
I527629
aI-323105
aa(lp368
I-190534
aI-143263
aa(lp369
I258882
aI-818831
aa(lp370
I259394
aI7052
aa(lp371
I-787371
aI-194660
aa(lp372
I880989
aI-852461
aa(lp373
I751929
aI-715308
aa(lp374
I-783741
aI-464625
aa(lp375
I-49094
aI298153
aa(lp376
I581171
aI-725263
aa(lp377
I673389
aI211540
aa(lp378
I580549
aI835349
aa(lp379
I526821
aI-133689
aa(lp380
I353107
aI-888573
aa(lp381
I889956
aI-550367
aa(lp382
I39455
aI-134904
aa(lp383
I-301368
aI-993344
aa(lp384
I-477186
aI427794
aa(lp385
I-66677
aI-823821
aa(lp386
I126186
aI-543837
aa(lp387
I-840614
aI-677415
aa(lp388
I-130999
aI-571905
aa(lp389
I487827
aI-746821
aa(lp390
I48269
aI717740
aa(lp391
I-402981
aI-342456
aa(lp392
I425146
aI-726190
aa(lp393
I107266
aI447979
aa(lp394
I504501
aI700957
aa(lp395
I-545275
aI-757925
aa(lp396
I286706
aI-972024
aa(lp397
I626313
aI446887
aa(lp398
I29904
aI-188899
aa(lp399
I-872011
aI565566
aa(lp400
I-978000
aI394987
aa(lp401
I814066
aI219752
aa(lp402
I188722
aI931266
aa(lp403
I768168
aI-42330
aa(lp404
I-644040
aI-299380
aa(lp405
I193771
aI-314550
aa(lp406
I210684
aI-116738
aasS'user_id'
p407
S'1'
p408
sg40
I8416
sS'date_discovered'
p409
g42
(S'\x07\xdf\x07\r\x14\x03\x18\n\xc7\xf9'
p410
tp411
Rp412
ssI75
(dp413
S'comment'
p414
g3
sS'pts'
p415
(lp416
(lp417
I539197
aI-51527
aa(lp418
I752974
aI505580
aa(lp419
I-823404
aI707758
aa(lp420
I-376612
aI-623397
aa(lp421
I533166
aI567380
aa(lp422
I-789305
aI-413538
aa(lp423
I776201
aI-666620
aa(lp424
I-293307
aI-542016
aa(lp425
I-457668
aI-48299
aa(lp426
I-18004
aI-147047
aa(lp427
I-230668
aI134133
aa(lp428
I-254923
aI826313
aa(lp429
I646632
aI-129639
aa(lp430
I743829
aI-190329
aa(lp431
I615610
aI-525950
aa(lp432
I296922
aI382955
aa(lp433
I-716038
aI-786715
aa(lp434
I84991
aI444309
aa(lp435
I-404491
aI562263
aa(lp436
I167106
aI127707
aa(lp437
I198978
aI-122676
aa(lp438
I-612601
aI777511
aa(lp439
I-857352
aI-432052
aa(lp440
I809826
aI-785425
aa(lp441
I848253
aI944699
aa(lp442
I661037
aI69711
aa(lp443
I-211927
aI715226
aa(lp444
I-339567
aI-703870
aa(lp445
I473258
aI146943
aa(lp446
I-3800
aI782158
aa(lp447
I-782433
aI32561
aa(lp448
I-222536
aI-939664
aa(lp449
I-935035
aI-24766
aa(lp450
I-312299
aI3555
aa(lp451
I379891
aI-455561
aa(lp452
I350725
aI281056
aa(lp453
I181021
aI361562
aa(lp454
I-441958
aI-11071
aa(lp455
I344724
aI332649
aa(lp456
I-548602
aI156029
aa(lp457
I564683
aI141221
aa(lp458
I766407
aI-30951
aa(lp459
I-242327
aI-19617
aa(lp460
I-465578
aI767574
aa(lp461
I-264168
aI-397192
aa(lp462
I-524661
aI872796
aa(lp463
I162146
aI-317758
aa(lp464
I-981064
aI-134838
aa(lp465
I843339
aI-226713
aa(lp466
I-766316
aI-32987
aa(lp467
I-59395
aI-55028
aa(lp468
I375689
aI187688
aa(lp469
I-100768
aI-310403
aa(lp470
I385950
aI-758189
aa(lp471
I-103703
aI749578
aa(lp472
I-834859
aI354203
aa(lp473
I277095
aI-8453
aa(lp474
I847847
aI-656674
aa(lp475
I435093
aI-338888
aa(lp476
I223927
aI665175
aa(lp477
I932721
aI-212357
aa(lp478
I106979
aI-460942
aa(lp479
I-588247
aI540380
aa(lp480
I452877
aI-897470
aa(lp481
I-838858
aI-514217
aa(lp482
I364382
aI198582
aa(lp483
I754421
aI-677721
aa(lp484
I-216909
aI421637
aa(lp485
I-927326
aI763646
aa(lp486
I-467432
aI726781
aa(lp487
I-126664
aI-525524
aa(lp488
I769023
aI-612951
aa(lp489
I649156
aI622106
aa(lp490
I512503
aI-253189
aa(lp491
I204621
aI-472232
aasS'user_id'
p492
S'2'
p493
sg40
I6284
sS'date_discovered'
p494
g42
(S'\x07\xdf\x07\r\x14\x03\x18\x0b$\xbc'
p495
tp496
Rp497
ssI12
(dp498
S'comment'
p499
g3
sS'pts'
p500
(lp501
(lp502
I-759767
aI-343012
aa(lp503
I887186
aI918343
aa(lp504
I-733868
aI-971528
aa(lp505
I-451583
aI349541
aa(lp506
I793454
aI-342590
aa(lp507
I-712206
aI416021
aa(lp508
I346235
aI848418
aa(lp509
I-277732
aI661090
aa(lp510
I-225858
aI-199097
aa(lp511
I228281
aI-447400
aa(lp512
I-199758
aI28457
aa(lp513
I-937475
aI-297771
aasS'user_id'
p514
S'3'
p515
sg40
I13
sS'date_discovered'
p516
g42
(S'\x07\xdf\x07\r\x14\x03\x1a\x08-W'
p517
tp518
Rp519
ssI49
(dp520
S'comment'
p521
g3
sS'pts'
p522
(lp523
(lp524
I313354
aI-773128
aa(lp525
I-738901
aI-436690
aa(lp526
I-974636
aI-434431
aa(lp527
I-104428
aI362891
aa(lp528
I-535428
aI-746648
aa(lp529
I408622
aI-744192
aa(lp530
I398511
aI13461
aa(lp531
I611717
aI917506
aa(lp532
I994154
aI892671
aa(lp533
I996945
aI320257
aa(lp534
I821213
aI-254117
aa(lp535
I803939
aI-22764
aa(lp536
I702883
aI-495180
aa(lp537
I-851423
aI-973495
aa(lp538
I-849167
aI-983431
aa(lp539
I19196
aI911900
aa(lp540
I891639
aI708990
aa(lp541
I-442550
aI79082
aa(lp542
I696810
aI-45819
aa(lp543
I-343741
aI-501140
aa(lp544
I-779653
aI-326678
aa(lp545
I-519104
aI-880114
aa(lp546
I551116
aI-541474
aa(lp547
I445891
aI98508
aa(lp548
I410509
aI257077
aa(lp549
I618668
aI152235
aa(lp550
I81688
aI-582198
aa(lp551
I-223043
aI674157
aa(lp552
I536006
aI-226097
aa(lp553
I-910864
aI-641851
aa(lp554
I-931510
aI-146438
aa(lp555
I-383322
aI-998085
aa(lp556
I-91276
aI206114
aa(lp557
I461573
aI-673746
aa(lp558
I-552176
aI859761
aa(lp559
I241921
aI-516952
aa(lp560
I-218686
aI294067
aa(lp561
I-744610
aI-986830
aa(lp562
I-408127
aI-871051
aa(lp563
I-802873
aI867769
aa(lp564
I-713424
aI853596
aa(lp565
I663439
aI-414473
aa(lp566
I105342
aI771620
aa(lp567
I-715223
aI50841
aa(lp568
I-299761
aI439868
aa(lp569
I-578219
aI-194671
aa(lp570
I515281
aI-466371
aa(lp571
I-885704
aI117705
aa(lp572
I-807274
aI-342526
aasS'user_id'
p573
S'3'
p574
sg40
I3896
sS'date_discovered'
p575
g42
(S'\x07\xdf\x07\r\x14\x03\x1a\x06\xfb\xb4'
p576
tp577
Rp578
ssI18
(dp579
S'comment'
p580
g3
sS'pts'
p581
(lp582
(lp583
I898905
aI282172
aa(lp584
I982933
aI-779597
aa(lp585
I986155
aI-630931
aa(lp586
I678321
aI-242250
aa(lp587
I838660
aI-120316
aa(lp588
I-89981
aI169068
aa(lp589
I-781423
aI-628374
aa(lp590
I-731690
aI13206
aa(lp591
I-872307
aI746804
aa(lp592
I-479250
aI92627
aa(lp593
I214949
aI-522685
aa(lp594
I-257557
aI-327186
aa(lp595
I-315493
aI-243889
aa(lp596
I69375
aI-389090
aa(lp597
I-689351
aI-376827
aa(lp598
I851383
aI-808066
aa(lp599
I750173
aI349956
aa(lp600
I-145615
aI241952
aasS'user_id'
p601
S'3'
p602
sg40
I133
sS'date_discovered'
p603
g42
(S'\x07\xdf\x07\r\x14\x03\x18\x0b`\xe7'
p604
tp605
Rp606
ssI99
(dp607
S'comment'
p608
g3
sS'pts'
p609
(lp610
(lp611
I149378
aI-168712
aa(lp612
I-114004
aI425749
aa(lp613
I-988306
aI306032
aa(lp614
I931993
aI-993367
aa(lp615
I-717951
aI353348
aa(lp616
I630128
aI-269679
aa(lp617
I745373
aI540847
aa(lp618
I-611934
aI182592
aa(lp619
I143435
aI977536
aa(lp620
I645583
aI352527
aa(lp621
I709215
aI858479
aa(lp622
I193895
aI-334933
aa(lp623
I-226471
aI16436
aa(lp624
I-86839
aI-646451
aa(lp625
I-294577
aI-341220
aa(lp626
I232655
aI-655866
aa(lp627
I-311620
aI228534
aa(lp628
I-753296
aI-118311
aa(lp629
I-773226
aI-361813
aa(lp630
I721487
aI565682
aa(lp631
I669650
aI743860
aa(lp632
I92432
aI293228
aa(lp633
I-14838
aI885722
aa(lp634
I855975
aI-43155
aa(lp635
I614085
aI-554562
aa(lp636
I672308
aI-903020
aa(lp637
I-898722
aI61157
aa(lp638
I238990
aI-770811
aa(lp639
I-210965
aI996838
aa(lp640
I526199
aI340474
aa(lp641
I-524530
aI-389054
aa(lp642
I-300132
aI178104
aa(lp643
I549622
aI-898189
aa(lp644
I-745595
aI-783711
aa(lp645
I-723727
aI-920441
aa(lp646
I-490871
aI-921107
aa(lp647
I488197
aI520004
aa(lp648
I-663757
aI-405464
aa(lp649
I816823
aI877983
aa(lp650
I695445
aI39145
aa(lp651
I30946
aI436867
aa(lp652
I-463892
aI-864965
aa(lp653
I-121028
aI276225
aa(lp654
I976656
aI86838
aa(lp655
I895587
aI891597
aa(lp656
I579387
aI-291888
aa(lp657
I-921280
aI-851042
aa(lp658
I494153
aI-132735
aa(lp659
I-52339
aI168760
aa(lp660
I930337
aI-577551
aa(lp661
I520002
aI-10278
aa(lp662
I27480
aI428335
aa(lp663
I-730418
aI609795
aa(lp664
I-767852
aI130289
aa(lp665
I467075
aI-201276
aa(lp666
I844774
aI77069
aa(lp667
I-117717
aI-368356
aa(lp668
I530298
aI-586947
aa(lp669
I-819379
aI-930334
aa(lp670
I510492
aI992783
aa(lp671
I-160452
aI229383
aa(lp672
I-460883
aI-730921
aa(lp673
I-263306
aI741947
aa(lp674
I175763
aI-169186
aa(lp675
I909232
aI-849241
aa(lp676
I-725006
aI-845971
aa(lp677
I-330783
aI395009
aa(lp678
I-27805
aI189559
aa(lp679
I865386
aI233223
aa(lp680
I-753913
aI-553763
aa(lp681
I431315
aI22782
aa(lp682
I-661348
aI-458132
aa(lp683
I90225
aI-158090
aa(lp684
I395034
aI-759546
aa(lp685
I-701634
aI-589819
aa(lp686
I-541084
aI-423635
aa(lp687
I805892
aI-38247
aa(lp688
I187123
aI992699
aa(lp689
I28423
aI-609697
aa(lp690
I118068
aI-596943
aa(lp691
I481148
aI727898
aa(lp692
I-295799
aI-564197
aa(lp693
I45301
aI793210
aa(lp694
I-149625
aI-315169
aa(lp695
I-764841
aI-482403
aa(lp696
I-286264
aI-727599
aa(lp697
I-652909
aI-106940
aa(lp698
I-731168
aI-266527
aa(lp699
I348775
aI429746
aa(lp700
I806678
aI453552
aa(lp701
I-617334
aI631494
aa(lp702
I393460
aI-295589
aa(lp703
I56032
aI-734100
aa(lp704
I296466
aI517650
aa(lp705
I-821221
aI425620
aa(lp706
I-396313
aI949690
aa(lp707
I-698156
aI-645589
aa(lp708
I762664
aI-278263
aa(lp709
I596581
aI89350
aasS'user_id'
p710
S'3'
p711
sg40
I14825
sS'date_discovered'
p712
g42
(S'\x07\xdf\x07\r\x14\x03\x1a\x07\xd4\x99'
p713
tp714
Rp715
ssI55
(dp716
S'comment'
p717
g3
sS'pts'
p718
(lp719
(lp720
I-476154
aI-620499
aa(lp721
I-439784
aI-573216
aa(lp722
I-941868
aI-383938
aa(lp723
I-281843
aI-540305
aa(lp724
I784133
aI275319
aa(lp725
I116259
aI54748
aa(lp726
I415125
aI-826559
aa(lp727
I-708686
aI-918444
aa(lp728
I568591
aI-545302
aa(lp729
I436664
aI640271
aa(lp730
I388623
aI-14655
aa(lp731
I-51951
aI-436936
aa(lp732
I561350
aI913229
aa(lp733
I-644885
aI60960
aa(lp734
I502400
aI-309874
aa(lp735
I669571
aI992821
aa(lp736
I-935711
aI-632203
aa(lp737
I-501536
aI-855127
aa(lp738
I610775
aI20724
aa(lp739
I279997
aI-239527
aa(lp740
I982737
aI-948158
aa(lp741
I560777
aI-747617
aa(lp742
I498357
aI-693181
aa(lp743
I31735
aI273599
aa(lp744
I396066
aI958916
aa(lp745
I385145
aI-9652
aa(lp746
I-138981
aI923561
aa(lp747
I101091
aI-22842
aa(lp748
I843357
aI880662
aa(lp749
I593491
aI-867715
aa(lp750
I-90777
aI2350
aa(lp751
I495058
aI660468
aa(lp752
I326592
aI-805245
aa(lp753
I235175
aI-924128
aa(lp754
I-977711
aI993499
aa(lp755
I836190
aI-408317
aa(lp756
I640686
aI378577
aa(lp757
I-849388
aI958686
aa(lp758
I326921
aI127496
aa(lp759
I264137
aI480700
aa(lp760
I-444383
aI-515552
aa(lp761
I368923
aI-954873
aa(lp762
I368504
aI812791
aa(lp763
I-942438
aI703193
aa(lp764
I697358
aI-472564
aa(lp765
I-230445
aI-750507
aa(lp766
I243105
aI996440
aa(lp767
I765080
aI361697
aa(lp768
I560123
aI818482
aa(lp769
I-688891
aI209223
aa(lp770
I882344
aI13949
aa(lp771
I-683285
aI-26070
aa(lp772
I414643
aI195519
aa(lp773
I690287
aI753696
aa(lp774
I78851
aI-673099
aasS'user_id'
p775
S'1'
p776
sg40
I2833
sS'date_discovered'
p777
g42
(S'\x07\xdf\x07\r\x14\x03\x18\t\x0f\x17'
p778
tp779
Rp780
ssI88
(dp781
S'comment'
p782
g3
sS'pts'
p783
(lp784
(lp785
I63954
aI-963510
aa(lp786
I826635
aI-647406
aa(lp787
I-781919
aI961996
aa(lp788
I-102401
aI931194
aa(lp789
I35077
aI915858
aa(lp790
I-66067
aI-348883
aa(lp791
I-488611
aI132868
aa(lp792
I720840
aI383528
aa(lp793
I537237
aI272808
aa(lp794
I599188
aI853111
aa(lp795
I50704
aI-346671
aa(lp796
I193486
aI924555
aa(lp797
I-278516
aI-169544
aa(lp798
I328410
aI845194
aa(lp799
I157883
aI-376186
aa(lp800
I224831
aI-459807
aa(lp801
I395715
aI348343
aa(lp802
I-75774
aI-512155
aa(lp803
I-621683
aI129625
aa(lp804
I-849471
aI-5274
aa(lp805
I-584530
aI67913
aa(lp806
I-28642
aI487282
aa(lp807
I854596
aI725151
aa(lp808
I653993
aI364470
aa(lp809
I342473
aI767671
aa(lp810
I504876
aI-320075
aa(lp811
I-218267
aI-351149
aa(lp812
I234601
aI180766
aa(lp813
I174516
aI-277522
aa(lp814
I528303
aI872444
aa(lp815
I-456500
aI825168
aa(lp816
I-800654
aI135923
aa(lp817
I357023
aI661697
aa(lp818
I845314
aI-720771
aa(lp819
I610195
aI34239
aa(lp820
I862133
aI436291
aa(lp821
I-679867
aI-25844
aa(lp822
I634537
aI-760342
aa(lp823
I656083
aI-113040
aa(lp824
I-572861
aI696559
aa(lp825
I825184
aI-758662
aa(lp826
I53827
aI-667538
aa(lp827
I-955208
aI-171181
aa(lp828
I-99555
aI-172780
aa(lp829
I332877
aI330692
aa(lp830
I888507
aI972752
aa(lp831
I114559
aI-740061
aa(lp832
I43105
aI-323418
aa(lp833
I-623434
aI921564
aa(lp834
I732076
aI-988377
aa(lp835
I-499204
aI666076
aa(lp836
I-309441
aI-830359
aa(lp837
I-918972
aI-440598
aa(lp838
I835391
aI-154494
aa(lp839
I-912242
aI993065
aa(lp840
I-947890
aI482631
aa(lp841
I-662176
aI50541
aa(lp842
I989657
aI269275
aa(lp843
I-910701
aI-504930
aa(lp844
I-121144
aI102367
aa(lp845
I29653
aI-449547
aa(lp846
I-436458
aI-278690
aa(lp847
I-907314
aI-901024
aa(lp848
I505204
aI-905366
aa(lp849
I971621
aI-261138
aa(lp850
I-125221
aI-684444
aa(lp851
I-469050
aI-390683
aa(lp852
I-406567
aI-631174
aa(lp853
I-845270
aI584775
aa(lp854
I-878433
aI-338070
aa(lp855
I670898
aI862245
aa(lp856
I-248617
aI-53467
aa(lp857
I-787829
aI-576804
aa(lp858
I118588
aI815614
aa(lp859
I-289560
aI585508
aa(lp860
I-136541
aI-548033
aa(lp861
I757342
aI-919198
aa(lp862
I-527906
aI406658
aa(lp863
I947647
aI-91639
aa(lp864
I227808
aI585773
aa(lp865
I247988
aI-511459
aa(lp866
I-368264
aI363422
aa(lp867
I525799
aI-117561
aa(lp868
I-487261
aI440080
aa(lp869
I951950
aI269735
aa(lp870
I-581123
aI62090
aa(lp871
I-269043
aI366899
aa(lp872
I159595
aI964426
aasS'user_id'
p873
S'2'
p874
sg40
I11354
sS'date_discovered'
p875
g42
(S'\x07\xdf\x07\r\x14\x03\x18\t\x8d\xe4'
p876
tp877
Rp878
ssI57
(dp879
S'comment'
p880
g3
sS'pts'
p881
(lp882
(lp883
I-64905
aI106554
aa(lp884
I-991322
aI-440464
aa(lp885
I413718
aI66804
aa(lp886
I-158853
aI19506
aa(lp887
I894896
aI-409670
aa(lp888
I310494
aI-173057
aa(lp889
I945909
aI632790
aa(lp890
I-956939
aI-27221
aa(lp891
I-578491
aI51336
aa(lp892
I-462733
aI-829124
aa(lp893
I442030
aI-447403
aa(lp894
I725950
aI692177
aa(lp895
I950641
aI-364703
aa(lp896
I-122082
aI-935653
aa(lp897
I78067
aI901076
aa(lp898
I-386187
aI-590329
aa(lp899
I735238
aI319723
aa(lp900
I713828
aI815134
aa(lp901
I583722
aI-265799
aa(lp902
I-774729
aI325145
aa(lp903
I258931
aI274026
aa(lp904
I-937002
aI-459723
aa(lp905
I-992006
aI216091
aa(lp906
I686171
aI-508329
aa(lp907
I87466
aI788887
aa(lp908
I-979957
aI-416289
aa(lp909
I-830617
aI113138
aa(lp910
I-20113
aI153975
aa(lp911
I371092
aI110677
aa(lp912
I573436
aI523602
aa(lp913
I401886
aI-121631
aa(lp914
I165614
aI-78079
aa(lp915
I-546188
aI-979083
aa(lp916
I-637484
aI-542971
aa(lp917
I405488
aI217551
aa(lp918
I394232
aI-53853
aa(lp919
I-602826
aI330013
aa(lp920
I183702
aI611668
aa(lp921
I929959
aI361005
aa(lp922
I440813
aI461167
aa(lp923
I-668890
aI-610140
aa(lp924
I153559
aI724293
aa(lp925
I187909
aI-585457
aa(lp926
I616334
aI-814044
aa(lp927
I154754
aI-675551
aa(lp928
I856315
aI-669363
aa(lp929
I326942
aI871934
aa(lp930
I-695464
aI653591
aa(lp931
I19978
aI-562616
aa(lp932
I908538
aI609129
aa(lp933
I656308
aI247733
aa(lp934
I340878
aI461858
aa(lp935
I462370
aI-637373
aa(lp936
I875339
aI683860
aa(lp937
I-465703
aI106760
aa(lp938
I162397
aI273731
aa(lp939
I-763854
aI-75845
aasS'user_id'
p940
S'3'
p941
sg40
I5236
sS'date_discovered'
p942
g42
(S'\x07\xdf\x07\r\x14\x03\x18\x0bZ\x17'
p943
tp944
Rp945
ssI90
(dp946
S'comment'
p947
g3
sS'pts'
p948
(lp949
(lp950
I908590
aI-497433
aa(lp951
I-940507
aI417114
aa(lp952
I91158
aI160222
aa(lp953
I46651
aI-546483
aa(lp954
I-976539
aI584467
aa(lp955
I-423599
aI-124679
aa(lp956
I-950316
aI-858569
aa(lp957
I-115458
aI-922438
aa(lp958
I-773573
aI-405940
aa(lp959
I-586300
aI233682
aa(lp960
I-312970
aI261493
aa(lp961
I795634
aI-318916
aa(lp962
I-101170
aI855679
aa(lp963
I-792350
aI594318
aa(lp964
I658662
aI-58585
aa(lp965
I844444
aI-797371
aa(lp966
I-445587
aI211901
aa(lp967
I119586
aI-531807
aa(lp968
I-818766
aI165976
aa(lp969
I-201475
aI-13967
aa(lp970
I396562
aI1143
aa(lp971
I-576163
aI-122822
aa(lp972
I798144
aI-758879
aa(lp973
I-168553
aI138230
aa(lp974
I178583
aI658617
aa(lp975
I-528061
aI-8812
aa(lp976
I181834
aI-475501
aa(lp977
I-533925
aI962253
aa(lp978
I832250
aI-297903
aa(lp979
I-923759
aI678416
aa(lp980
I2113
aI7315
aa(lp981
I46572
aI-825972
aa(lp982
I-760362
aI630862
aa(lp983
I-966993
aI-846117
aa(lp984
I-931429
aI-542753
aa(lp985
I-94904
aI-773035
aa(lp986
I-114086
aI-862338
aa(lp987
I-485685
aI-892363
aa(lp988
I103713
aI258463
aa(lp989
I14178
aI517159
aa(lp990
I91092
aI741451
aa(lp991
I277764
aI572975
aa(lp992
I794786
aI-606166
aa(lp993
I851216
aI-745259
aa(lp994
I-792147
aI561776
aa(lp995
I126029
aI-582733
aa(lp996
I788075
aI-136398
aa(lp997
I942999
aI-551836
aa(lp998
I-258427
aI412326
aa(lp999
I-103977
aI819514
aa(lp1000
I-992964
aI-183595
aa(lp1001
I-716254
aI585820
aa(lp1002
I-680628
aI-648642
aa(lp1003
I-355217
aI-569256
aa(lp1004
I-670828
aI-227289
aa(lp1005
I-834984
aI-333271
aa(lp1006
I-716323
aI-545139
aa(lp1007
I-72325
aI937922
aa(lp1008
I-432433
aI-512522
aa(lp1009
I523093
aI-592800
aa(lp1010
I372340
aI978570
aa(lp1011
I779292
aI-240335
aa(lp1012
I281337
aI-684349
aa(lp1013
I-972074
aI-215817
aa(lp1014
I-44642
aI418199
aa(lp1015
I-301301
aI-21316
aa(lp1016
I643436
aI58832
aa(lp1017
I949915
aI-329187
aa(lp1018
I635543
aI-103082
aa(lp1019
I-389406
aI992338
aa(lp1020
I719779
aI852828
aa(lp1021
I442820
aI-148275
aa(lp1022
I605136
aI-591806
aa(lp1023
I794432
aI365764
aa(lp1024
I-811153
aI695227
aa(lp1025
I662869
aI-413097
aa(lp1026
I-560935
aI622879
aa(lp1027
I-819712
aI-699410
aa(lp1028
I-579077
aI707981
aa(lp1029
I285075
aI793091
aa(lp1030
I201888
aI227129
aa(lp1031
I29777
aI-810755
aa(lp1032
I207720
aI-846345
aa(lp1033
I-516843
aI175821
aa(lp1034
I918508
aI77928
aa(lp1035
I-574185
aI-739764
aa(lp1036
I-965475
aI5583
aa(lp1037
I-264960
aI-92880
aa(lp1038
I-274131
aI516733
aa(lp1039
I228792
aI-849194
aasS'user_id'
p1040
S'1'
p1041
sg40
I12930
sS'date_discovered'
p1042
g42
(S'\x07\xdf\x07\r\x14\x03\x18\nl\xef'
p1043
tp1044
Rp1045
ssI62
(dp1046
S'comment'
p1047
g3
sS'pts'
p1048
(lp1049
(lp1050
I-192646
aI627603
aa(lp1051
I-935494
aI-789442
aa(lp1052
I179080
aI-526428
aa(lp1053
I688664
aI-451051
aa(lp1054
I-359750
aI-185124
aa(lp1055
I-699758
aI-495173
aa(lp1056
I-34640
aI487412
aa(lp1057
I495005
aI64346
aa(lp1058
I906730
aI924168
aa(lp1059
I-95060
aI922131
aa(lp1060
I706840
aI-384143
aa(lp1061
I-21081
aI-288451
aa(lp1062
I107658
aI75234
aa(lp1063
I-998286
aI-972573
aa(lp1064
I453883
aI71999
aa(lp1065
I317056
aI-481123
aa(lp1066
I26352
aI269648
aa(lp1067
I889970
aI-959480
aa(lp1068
I-122568
aI429647
aa(lp1069
I415182
aI41635
aa(lp1070
I-927570
aI698346
aa(lp1071
I-245216
aI491216
aa(lp1072
I-601037
aI-575161
aa(lp1073
I-129192
aI427429
aa(lp1074
I267756
aI-398807
aa(lp1075
I593170
aI192422
aa(lp1076
I-623074
aI-456136
aa(lp1077
I279580
aI509423
aa(lp1078
I-526638
aI-995002
aa(lp1079
I909073
aI-558719
aa(lp1080
I-221192
aI408322
aa(lp1081
I228433
aI717059
aa(lp1082
I-310606
aI-370474
aa(lp1083
I27883
aI662060
aa(lp1084
I79897
aI34650
aa(lp1085
I655524
aI82951
aa(lp1086
I-164537
aI-220802
aa(lp1087
I-33998
aI952226
aa(lp1088
I-252988
aI-755496
aa(lp1089
I463208
aI-500907
aa(lp1090
I-236785
aI-547441
aa(lp1091
I424537
aI633855
aa(lp1092
I226747
aI63889
aa(lp1093
I129562
aI-311689
aa(lp1094
I489263
aI504250
aa(lp1095
I548177
aI-195274
aa(lp1096
I478656
aI953106
aa(lp1097
I18160
aI446947
aa(lp1098
I901649
aI72432
aa(lp1099
I-143889
aI-846645
aa(lp1100
I-187150
aI220855
aa(lp1101
I613380
aI-70069
aa(lp1102
I603138
aI-519328
aa(lp1103
I-231205
aI-986441
aa(lp1104
I27291
aI-761827
aa(lp1105
I504153
aI-953263
aa(lp1106
I-90116
aI180466
aa(lp1107
I-609278
aI-924659
aa(lp1108
I-524258
aI892508
aa(lp1109
I982229
aI-561467
aa(lp1110
I249078
aI280603
aa(lp1111
I-307434
aI-115081
aasS'user_id'
p1112
S'1'
p1113
sg40
I3389
sS'date_discovered'
p1114
g42
(S'\x07\xdf\x07\r\x14\x03\x18\x08\xde\xc9'
p1115
tp1116
Rp1117
ss.