(lp0
(lp1
I226
aI610
aI0
aa(lp2
I279
aI599
aI0
aa(lp3
I328
aI569
aI0
aa(lp4
I340
aI591
aI0
aa(lp5
I407
aI759
aI0
aa(lp6
I420
aI757
aI0
aa(lp7
I426
aI539
aI0
aa(lp8
I429
aI762
aI0
aa(lp9
I440
aI624
aI0
aa(lp10
I457
aI618
aI0
aa(lp11
I691
aI126
aI0
aa(lp12
I704
aI9
aI0
aa(lp13
I707
aI129
aI0
aa(lp14
I718
aI11
aI0
aa(lp15
I718
aI212
aI0
aa(lp16
I734
aI5
aI0
aa(lp17
I735
aI213
aI0
aa(lp18
I741
aI196
aI0
aa(lp19
I820
aI179
aI0
aa(lp20
I826
aI137
aI0
aa(lp21
I834
aI179
aI0
aa(lp22
I899
aI155
aI0
aa(lp23
I983
aI111
aI0
aa(lp24
I159
aI645
aI1
aa(lp25
I256
aI594
aI1
aa(lp26
I321
aI571
aI1
aa(lp27
I329
aI613
aI1
aa(lp28
I335
aI570
aI1
aa(lp29
I401
aI763
aI1
aa(lp30
I413
aI757
aI1
aa(lp31
I418
aI550
aI1
aa(lp32
I420
aI537
aI1
aa(lp33
I425
aI759
aI1
aa(lp34
I433
aI538
aI1
aa(lp35
I448
aI620
aI1
aa(lp36
I465
aI620
aI1
aa(lp37
I698
aI6
aI1
aa(lp38
I698
aI128
aI1
aa(lp39
I729
aI210
aI1
aa(lp40
I712
aI11
aI1
aa(lp41
I715
aI126
aI1
aa(lp42
I726
aI9
aI1
aa(lp43
I811
aI160
aI1
aa(lp44
I827
aI180
aI1
aa(lp45
I875
aI150
aI1
aa(lp46
I928
aI139
aI1
aa.