(lp0
(lp1
I1958
aI1446
aa(lp2
I1941
aI1420
aa(lp3
I1964
aI1426
aa(lp4
I1973
aI1461
aa(lp5
I1969
aI1447
aa(lp6
I1979
aI1451
aa(lp7
I1797
aI1281
aa(lp8
I1982
aI1464
aa(lp9
I1951
aI1415
aa(lp10
I1775
aI1335
aa(lp11
I2002
aI1512
aa(lp12
I2044
aI1439
aa(lp13
I2038
aI1498
aa(lp14
I1914
aI1325
aa(lp15
I2073
aI1384
aa(lp16
I1887
aI1448
aa(lp17
I1946
aI1561
aa(lp18
I1811
aI1223
aa(lp19
I2148
aI1611
aa(lp20
I2181
aI1498
aa(lp21
I1678
aI1347
aa(lp22
I1649
aI1223
aa(lp23
I2265
aI1215
aa(lp24
I1554
aI836
aa(lp25
I563
aI1219
aa(lp26
I1734
aI3759
aa(lp27
I3765
aI2014
aa(lp28
I3157
aI2528
aa(lp29
I1
aI8
aa.