(lp0
(lp1
I49973421
aI50017420
aa(lp2
I49929191
aI50227623
aa(lp3
I50172879
aI50102330
aa(lp4
I49777844
aI50061726
aa(lp5
I49467286
aI50703503
aa(lp6
I49815524
aI50198404
aa(lp7
I49898738
aI49834980
aa(lp8
I49227506
aI50386816
aa(lp9
I50067858
aI50644809
aa(lp10
I50253387
aI49880843
aa(lp11
I50712990
aI50011693
aa(lp12
I49515129
aI49650711
aa(lp13
I50022844
aI49806937
aa(lp14
I50700724
aI49506570
aa(lp15
I49094629
aI51695552
aa(lp16
I48319056
aI51233585
aa(lp17
I50167178
aI49089680
aa(lp18
I49943386
aI47850974
aa(lp19
I51752341
aI49442777
aa(lp20
I50944399
aI51033522
aa(lp21
I48419953
aI49714281
aa(lp22
I57779279
aI56884668
aa(lp23
I51583334
aI47666346
aa(lp24
I43134300
aI48385397
aa(lp25
I42220272
aI56458784
aa(lp26
I62762173
aI29749952
aa(lp27
I36789400
aI79046331
aa(lp28
I82567599
aI39842984
aa(lp29
I47828219
aI3766738
aa.